target datalayout = "e-m:e-p270:32:32-p271:32:32-p272:64:64-i64:64-i128:128-f80:128-n8:16:32:64-S128"
target triple = "x86_64-pc-linux-gnu"

%struct.btLCP = type { i32, i32, i32, i32, i32, ptr, ptr, ptr, ptr, ptr, ptr, ptr, ptr, ptr, ptr, ptr, ptr, ptr, ptr, ptr }

; Function Attrs: mustprogress nounwind uwtable
define dso_local void @_ZN5btLCP9unpermuteEv(ptr noundef nonnull align 8 dereferenceable(144) %0) #1 align 2 {
  %2 = alloca ptr, align 8
  %3 = alloca ptr, align 8
  %4 = alloca ptr, align 8
  %5 = alloca ptr, align 8
  %6 = alloca i32, align 4
  %7 = alloca i32, align 4
  %8 = alloca ptr, align 8
  %9 = alloca ptr, align 8
  %10 = alloca ptr, align 8
  %11 = alloca i32, align 4
  %12 = alloca i32, align 4
  store ptr %0, ptr %2, align 8, !tbaa !41
  %13 = load ptr, ptr %2, align 8
  %14 = getelementptr inbounds nuw %struct.btLCP, ptr %13, i32 0, i32 15
  %15 = load ptr, ptr %14, align 8, !tbaa !65
  %16 = getelementptr inbounds nuw %struct.btLCP, ptr %13, i32 0, i32 6
  %17 = load ptr, ptr %16, align 8, !tbaa !56
  %18 = getelementptr inbounds nuw %struct.btLCP, ptr %13, i32 0, i32 0
  %19 = load i32, ptr %18, align 8, !tbaa !49
  %20 = sext i32 %19 to i64
  %21 = mul i64 %20, 4
  call void @llvm.memcpy.p0.p0.i64(ptr align 4 %15, ptr align 4 %17, i64 %21, i1 false)
  call void @llvm.lifetime.start.p0(i64 8, ptr %3) #9
  %22 = getelementptr inbounds nuw %struct.btLCP, ptr %13, i32 0, i32 6
  %23 = load ptr, ptr %22, align 8, !tbaa !56
  store ptr %23, ptr %3, align 8, !tbaa !12
  call void @llvm.lifetime.start.p0(i64 8, ptr %4) #9
  %24 = getelementptr inbounds nuw %struct.btLCP, ptr %13, i32 0, i32 15
  %25 = load ptr, ptr %24, align 8, !tbaa !65
  store ptr %25, ptr %4, align 8, !tbaa !12
  call void @llvm.lifetime.start.p0(i64 8, ptr %5) #9
  %26 = getelementptr inbounds nuw %struct.btLCP, ptr %13, i32 0, i32 18
  %27 = load ptr, ptr %26, align 8, !tbaa !68
  store ptr %27, ptr %5, align 8, !tbaa !45
  call void @llvm.lifetime.start.p0(i64 4, ptr %6) #9
  %28 = getelementptr inbounds nuw %struct.btLCP, ptr %13, i32 0, i32 0
  %29 = load i32, ptr %28, align 8, !tbaa !49
  store i32 %29, ptr %6, align 4, !tbaa !9
  call void @llvm.lifetime.start.p0(i64 4, ptr %7) #9
  store i32 0, ptr %7, align 4, !tbaa !9
  br label %30

30:                                               ; preds = %49, %1
  %31 = load i32, ptr %7, align 4, !tbaa !9
  %32 = load i32, ptr %6, align 4, !tbaa !9
  %33 = icmp slt i32 %31, %32
  br i1 %33, label %35, label %34

34:                                               ; preds = %30
  call void @llvm.lifetime.end.p0(i64 4, ptr %7) #9
  br label %52

35:                                               ; preds = %30
  %36 = load ptr, ptr %4, align 8, !tbaa !12
  %37 = load i32, ptr %7, align 4, !tbaa !9
  %38 = sext i32 %37 to i64
  %39 = getelementptr inbounds float, ptr %36, i64 %38
  %40 = load float, ptr %39, align 4, !tbaa !14
  %41 = load ptr, ptr %3, align 8, !tbaa !12
  %42 = load ptr, ptr %5, align 8, !tbaa !45
  %43 = load i32, ptr %7, align 4, !tbaa !9
  %44 = sext i32 %43 to i64
  %45 = getelementptr inbounds i32, ptr %42, i64 %44
  %46 = load i32, ptr %45, align 4, !tbaa !9
  %47 = sext i32 %46 to i64
  %48 = getelementptr inbounds float, ptr %41, i64 %47
  store float %40, ptr %48, align 4, !tbaa !14
  br label %49

49:                                               ; preds = %35
  %50 = load i32, ptr %7, align 4, !tbaa !9
  %51 = add nsw i32 %50, 1
  store i32 %51, ptr %7, align 4, !tbaa !9
  br label %30, !llvm.loop !120

52:                                               ; preds = %34
  call void @llvm.lifetime.end.p0(i64 4, ptr %6) #9
  call void @llvm.lifetime.end.p0(i64 8, ptr %5) #9
  call void @llvm.lifetime.end.p0(i64 8, ptr %4) #9
  call void @llvm.lifetime.end.p0(i64 8, ptr %3) #9
  %53 = getelementptr inbounds nuw %struct.btLCP, ptr %13, i32 0, i32 15
  %54 = load ptr, ptr %53, align 8, !tbaa !65
  %55 = getelementptr inbounds nuw %struct.btLCP, ptr %13, i32 0, i32 8
  %56 = load ptr, ptr %55, align 8, !tbaa !58
  %57 = getelementptr inbounds nuw %struct.btLCP, ptr %13, i32 0, i32 0
  %58 = load i32, ptr %57, align 8, !tbaa !49
  %59 = sext i32 %58 to i64
  %60 = mul i64 %59, 4
  call void @llvm.memcpy.p0.p0.i64(ptr align 4 %54, ptr align 4 %56, i64 %60, i1 false)
  call void @llvm.lifetime.start.p0(i64 8, ptr %8) #9
  %61 = getelementptr inbounds nuw %struct.btLCP, ptr %13, i32 0, i32 8
  %62 = load ptr, ptr %61, align 8, !tbaa !58
  store ptr %62, ptr %8, align 8, !tbaa !12
  call void @llvm.lifetime.start.p0(i64 8, ptr %9) #9
  %63 = getelementptr inbounds nuw %struct.btLCP, ptr %13, i32 0, i32 15
  %64 = load ptr, ptr %63, align 8, !tbaa !65
  store ptr %64, ptr %9, align 8, !tbaa !12
  call void @llvm.lifetime.start.p0(i64 8, ptr %10) #9
  %65 = getelementptr inbounds nuw %struct.btLCP, ptr %13, i32 0, i32 18
  %66 = load ptr, ptr %65, align 8, !tbaa !68
  store ptr %66, ptr %10, align 8, !tbaa !45
  call void @llvm.lifetime.start.p0(i64 4, ptr %11) #9
  %67 = getelementptr inbounds nuw %struct.btLCP, ptr %13, i32 0, i32 0
  %68 = load i32, ptr %67, align 8, !tbaa !49
  store i32 %68, ptr %11, align 4, !tbaa !9
  call void @llvm.lifetime.start.p0(i64 4, ptr %12) #9
  store i32 0, ptr %12, align 4, !tbaa !9
  br label %69

69:                                               ; preds = %88, %52
  %70 = load i32, ptr %12, align 4, !tbaa !9
  %71 = load i32, ptr %11, align 4, !tbaa !9
  %72 = icmp slt i32 %70, %71
  br i1 %72, label %74, label %73

73:                                               ; preds = %69
  call void @llvm.lifetime.end.p0(i64 4, ptr %12) #9
  br label %91

74:                                               ; preds = %69
  %75 = load ptr, ptr %9, align 8, !tbaa !12
  %76 = load i32, ptr %12, align 4, !tbaa !9
  %77 = sext i32 %76 to i64
  %78 = getelementptr inbounds float, ptr %75, i64 %77
  %79 = load float, ptr %78, align 4, !tbaa !14
  %80 = load ptr, ptr %8, align 8, !tbaa !12
  %81 = load ptr, ptr %10, align 8, !tbaa !45
  %82 = load i32, ptr %12, align 4, !tbaa !9
  %83 = sext i32 %82 to i64
  %84 = getelementptr inbounds i32, ptr %81, i64 %83
  %85 = load i32, ptr %84, align 4, !tbaa !9
  %86 = sext i32 %85 to i64
  %87 = getelementptr inbounds float, ptr %80, i64 %86
  store float %79, ptr %87, align 4, !tbaa !14
  br label %88

88:                                               ; preds = %74
  %89 = load i32, ptr %12, align 4, !tbaa !9
  %90 = add nsw i32 %89, 1
  store i32 %90, ptr %12, align 4, !tbaa !9
  br label %69, !llvm.loop !121

91:                                               ; preds = %73
  call void @llvm.lifetime.end.p0(i64 4, ptr %11) #9
  call void @llvm.lifetime.end.p0(i64 8, ptr %10) #9
  call void @llvm.lifetime.end.p0(i64 8, ptr %9) #9
  call void @llvm.lifetime.end.p0(i64 8, ptr %8) #9
  ret void
}