; Function Attrs: mustprogress nofree norecurse nosync nounwind memory(readwrite, inaccessiblemem: none) uwtable
define dso_local void @_ZN5btLCP9unpermuteEv(ptr noundef nonnull readonly align 8 captures(none) dereferenceable(144) %0) local_unnamed_addr #3 align 2 {
  %2 = getelementptr inbounds nuw i8, ptr %0, i64 104
  %3 = load ptr, ptr %2, align 8, !tbaa !53
  %4 = getelementptr inbounds nuw i8, ptr %0, i64 32
  %5 = load ptr, ptr %4, align 8, !tbaa !44
  %6 = load i32, ptr %0, align 8, !tbaa !31
  %7 = sext i32 %6 to i64
  %8 = shl nsw i64 %7, 2
  tail call void @llvm.memcpy.p0.p0.i64(ptr align 4 %3, ptr align 4 %5, i64 %8, i1 false)
  %9 = load ptr, ptr %4, align 8, !tbaa !44
  %10 = load ptr, ptr %2, align 8, !tbaa !53
  %11 = getelementptr inbounds nuw i8, ptr %0, i64 128
  %12 = load ptr, ptr %11, align 8, !tbaa !56
  %13 = load i32, ptr %0, align 8, !tbaa !31
  %14 = icmp sgt i32 %13, 0
  br i1 %14, label %.lr.ph.preheader, label %._crit_edge

.lr.ph.preheader:                                 ; preds = %1
  %wide.trip.count = zext nneg i32 %13 to i64
  br label %.lr.ph

._crit_edge:                                      ; preds = %.lr.ph, %1
  %15 = getelementptr inbounds nuw i8, ptr %0, i64 48
  %16 = load ptr, ptr %15, align 8, !tbaa !46
  %17 = sext i32 %13 to i64
  %18 = shl nsw i64 %17, 2
  tail call void @llvm.memcpy.p0.p0.i64(ptr align 4 %10, ptr align 4 %16, i64 %18, i1 false)
  %19 = load ptr, ptr %15, align 8, !tbaa !46
  %20 = load ptr, ptr %2, align 8, !tbaa !53
  %21 = load ptr, ptr %11, align 8, !tbaa !56
  %22 = load i32, ptr %0, align 8, !tbaa !31
  %23 = icmp sgt i32 %22, 0
  br i1 %23, label %.lr.ph20.preheader, label %._crit_edge21

.lr.ph20.preheader:                               ; preds = %._crit_edge
  %wide.trip.count26 = zext nneg i32 %22 to i64
  br label %.lr.ph20

.lr.ph:                                           ; preds = %.lr.ph.preheader, %.lr.ph
  %indvars.iv = phi i64 [ 0, %.lr.ph.preheader ], [ %indvars.iv.next, %.lr.ph ]
  %24 = getelementptr inbounds nuw float, ptr %10, i64 %indvars.iv
  %25 = load float, ptr %24, align 4, !tbaa !4
  %26 = getelementptr inbounds nuw i32, ptr %12, i64 %indvars.iv
  %27 = load i32, ptr %26, align 4, !tbaa !60
  %28 = sext i32 %27 to i64
  %29 = getelementptr inbounds float, ptr %9, i64 %28
  store float %25, ptr %29, align 4, !tbaa !4
  %indvars.iv.next = add nuw nsw i64 %indvars.iv, 1
  %exitcond.not = icmp eq i64 %indvars.iv.next, %wide.trip.count
  br i1 %exitcond.not, label %._crit_edge, label %.lr.ph, !llvm.loop !108

._crit_edge21:                                    ; preds = %.lr.ph20, %._crit_edge
  ret void

.lr.ph20:                                         ; preds = %.lr.ph20.preheader, %.lr.ph20
  %indvars.iv23 = phi i64 [ 0, %.lr.ph20.preheader ], [ %indvars.iv.next24, %.lr.ph20 ]
  %30 = getelementptr inbounds nuw float, ptr %20, i64 %indvars.iv23
  %31 = load float, ptr %30, align 4, !tbaa !4
  %32 = getelementptr inbounds nuw i32, ptr %21, i64 %indvars.iv23
  %33 = load i32, ptr %32, align 4, !tbaa !60
  %34 = sext i32 %33 to i64
  %35 = getelementptr inbounds float, ptr %19, i64 %34
  store float %31, ptr %35, align 4, !tbaa !4
  %indvars.iv.next24 = add nuw nsw i64 %indvars.iv23, 1
  %exitcond27.not = icmp eq i64 %indvars.iv.next24, %wide.trip.count26
  br i1 %exitcond27.not, label %._crit_edge21, label %.lr.ph20, !llvm.loop !109
}